	.file	"fir_control.c"
	.option nopic
	.attribute arch, "rv32i2p1_zicsr2p0"
	.attribute unaligned_access, 0
	.attribute stack_align, 16
	.text
.Ltext0:
	.cfi_sections	.debug_frame
	.file 0 "/Users/yue/hkust-soc-lab/Lab4/Lab4-2/lab-caravel_fir/testbench/counter_la_fir" "fir_control.c"
	.align	2
	.type	flush_cpu_icache, @function
flush_cpu_icache:
.LFB21:
	.file 1 "../../firmware/system.h"
	.loc 1 15 1
	.cfi_startproc
	addi	sp,sp,-16
	.cfi_def_cfa_offset 16
	sw	ra,12(sp)
	sw	s0,8(sp)
	.cfi_offset 1, -4
	.cfi_offset 8, -8
	addi	s0,sp,16
	.cfi_def_cfa 8, 0
	.loc 1 26 1
	nop
	lw	ra,12(sp)
	.cfi_restore 1
	lw	s0,8(sp)
	.cfi_restore 8
	.cfi_def_cfa 2, 16
	addi	sp,sp,16
	.cfi_def_cfa_offset 0
	jr	ra
	.cfi_endproc
.LFE21:
	.size	flush_cpu_icache, .-flush_cpu_icache
	.align	2
	.type	flush_cpu_dcache, @function
flush_cpu_dcache:
.LFB22:
	.loc 1 29 1
	.cfi_startproc
	addi	sp,sp,-16
	.cfi_def_cfa_offset 16
	sw	ra,12(sp)
	sw	s0,8(sp)
	.cfi_offset 1, -4
	.cfi_offset 8, -8
	addi	s0,sp,16
	.cfi_def_cfa 8, 0
	.loc 1 33 1
	nop
	lw	ra,12(sp)
	.cfi_restore 1
	lw	s0,8(sp)
	.cfi_restore 8
	.cfi_def_cfa 2, 16
	addi	sp,sp,16
	.cfi_def_cfa_offset 0
	jr	ra
	.cfi_endproc
.LFE22:
	.size	flush_cpu_dcache, .-flush_cpu_dcache
	.section	.mprjram,"ax",@progbits
	.align	2
	.globl	init_fir_control
	.type	init_fir_control, @function
init_fir_control:
.LFB316:
	.file 2 "fir_control.c"
	.loc 2 5 70
	.cfi_startproc
	addi	sp,sp,-16
	.cfi_def_cfa_offset 16
	sw	ra,12(sp)
	sw	s0,8(sp)
	.cfi_offset 1, -4
	.cfi_offset 8, -8
	addi	s0,sp,16
	.cfi_def_cfa 8, 0
	.loc 2 7 5
	li	a5,805306368
	.loc 2 7 49
	sw	zero,0(a5)
	.loc 2 10 5
	li	a5,805306368
	addi	a5,a5,16
	.loc 2 10 49
	li	a4,64
	sw	a4,0(a5)
	.loc 2 11 1
	nop
	lw	ra,12(sp)
	.cfi_restore 1
	lw	s0,8(sp)
	.cfi_restore 8
	.cfi_def_cfa 2, 16
	addi	sp,sp,16
	.cfi_def_cfa_offset 0
	jr	ra
	.cfi_endproc
.LFE316:
	.size	init_fir_control, .-init_fir_control
	.align	2
	.globl	program_fir_coeffs
	.type	program_fir_coeffs, @function
program_fir_coeffs:
.LFB317:
	.loc 2 14 100
	.cfi_startproc
	addi	sp,sp,-48
	.cfi_def_cfa_offset 48
	sw	ra,44(sp)
	sw	s0,40(sp)
	.cfi_offset 1, -4
	.cfi_offset 8, -8
	addi	s0,sp,48
	.cfi_def_cfa 8, 0
	sw	a0,-36(s0)
	sw	a1,-40(s0)
	.loc 2 16 12
	sw	zero,-20(s0)
	.loc 2 16 5
	j	.L5
.L6:
	.loc 2 17 71
	lw	a5,-20(s0)
	slli	a5,a5,2
	lw	a4,-36(s0)
	add	a5,a4,a5
	lw	a3,0(a5)
	.loc 2 17 51
	lw	a4,-20(s0)
	li	a5,201326592
	addi	a5,a5,16
	add	a5,a4,a5
	slli	a5,a5,2
	.loc 2 17 71
	mv	a4,a3
	.loc 2 17 63
	sw	a4,0(a5)
	.loc 2 16 34 discriminator 3
	lw	a5,-20(s0)
	addi	a5,a5,1
	sw	a5,-20(s0)
.L5:
	.loc 2 16 19 discriminator 1
	lw	a4,-20(s0)
	lw	a5,-40(s0)
	blt	a4,a5,.L6
	.loc 2 19 1
	nop
	nop
	lw	ra,44(sp)
	.cfi_restore 1
	lw	s0,40(sp)
	.cfi_restore 8
	.cfi_def_cfa 2, 48
	addi	sp,sp,48
	.cfi_def_cfa_offset 0
	jr	ra
	.cfi_endproc
.LFE317:
	.size	program_fir_coeffs, .-program_fir_coeffs
	.align	2
	.globl	get_data
	.type	get_data, @function
get_data:
.LFB318:
	.loc 2 22 66
	.cfi_startproc
	addi	sp,sp,-32
	.cfi_def_cfa_offset 32
	sw	ra,28(sp)
	sw	s0,24(sp)
	.cfi_offset 1, -4
	.cfi_offset 8, -8
	addi	s0,sp,32
	.cfi_def_cfa 8, 0
	.loc 2 24 11
	nop
.L8:
	.loc 2 24 14 discriminator 1
	li	a5,805306368
	lw	a5,0(a5)
	.loc 2 24 58 discriminator 1
	andi	a5,a5,32
	.loc 2 24 12 discriminator 1
	beq	a5,zero,.L8
	.loc 2 27 21
	li	a5,805306368
	addi	a5,a5,132
	.loc 2 27 14
	lw	a5,0(a5)
	sw	a5,-20(s0)
	.loc 2 31 31
	li	a5,805306368
	lw	a5,0(a5)
	.loc 2 31 23
	sw	a5,-24(s0)
	.loc 2 33 12
	lw	a5,-20(s0)
	.loc 2 34 1
	mv	a0,a5
	lw	ra,28(sp)
	.cfi_restore 1
	lw	s0,24(sp)
	.cfi_restore 8
	.cfi_def_cfa 2, 32
	addi	sp,sp,32
	.cfi_def_cfa_offset 0
	jr	ra
	.cfi_endproc
.LFE318:
	.size	get_data, .-get_data
	.align	2
	.globl	wait_for_fir_ready
	.type	wait_for_fir_ready, @function
wait_for_fir_ready:
.LFB319:
	.loc 2 37 72
	.cfi_startproc
	addi	sp,sp,-16
	.cfi_def_cfa_offset 16
	sw	ra,12(sp)
	sw	s0,8(sp)
	.cfi_offset 1, -4
	.cfi_offset 8, -8
	addi	s0,sp,16
	.cfi_def_cfa 8, 0
	.loc 2 38 11
	nop
.L11:
	.loc 2 38 14 discriminator 1
	li	a5,805306368
	lw	a5,0(a5)
	.loc 2 38 58 discriminator 1
	andi	a5,a5,16
	.loc 2 38 12 discriminator 1
	beq	a5,zero,.L11
	.loc 2 39 1
	nop
	nop
	lw	ra,12(sp)
	.cfi_restore 1
	lw	s0,8(sp)
	.cfi_restore 8
	.cfi_def_cfa 2, 16
	addi	sp,sp,16
	.cfi_def_cfa_offset 0
	jr	ra
	.cfi_endproc
.LFE319:
	.size	wait_for_fir_ready, .-wait_for_fir_ready
	.align	2
	.globl	send_data_to_fir
	.type	send_data_to_fir, @function
send_data_to_fir:
.LFB320:
	.loc 2 42 78
	.cfi_startproc
	addi	sp,sp,-32
	.cfi_def_cfa_offset 32
	sw	ra,28(sp)
	sw	s0,24(sp)
	.cfi_offset 1, -4
	.cfi_offset 8, -8
	addi	s0,sp,32
	.cfi_def_cfa 8, 0
	sw	a0,-20(s0)
	.loc 2 44 5
	call	wait_for_fir_ready
	.loc 2 45 5
	li	a5,805306368
	addi	a5,a5,128
	.loc 2 45 49
	lw	a4,-20(s0)
	sw	a4,0(a5)
	.loc 2 46 1
	nop
	lw	ra,28(sp)
	.cfi_restore 1
	lw	s0,24(sp)
	.cfi_restore 8
	.cfi_def_cfa 2, 32
	addi	sp,sp,32
	.cfi_def_cfa_offset 0
	jr	ra
	.cfi_endproc
.LFE320:
	.size	send_data_to_fir, .-send_data_to_fir
	.align	2
	.globl	receive_data_from_fir
	.type	receive_data_from_fir, @function
receive_data_from_fir:
.LFB321:
	.loc 2 49 74
	.cfi_startproc
	addi	sp,sp,-16
	.cfi_def_cfa_offset 16
	sw	ra,12(sp)
	sw	s0,8(sp)
	.cfi_offset 1, -4
	.cfi_offset 8, -8
	addi	s0,sp,16
	.cfi_def_cfa 8, 0
	.loc 2 51 11
	nop
.L14:
	.loc 2 51 14 discriminator 1
	li	a5,805306368
	lw	a5,0(a5)
	.loc 2 51 58 discriminator 1
	andi	a5,a5,32
	.loc 2 51 12 discriminator 1
	beq	a5,zero,.L14
	.loc 2 54 12
	li	a5,805306368
	addi	a5,a5,132
	lw	a5,0(a5)
	.loc 2 55 1
	mv	a0,a5
	lw	ra,12(sp)
	.cfi_restore 1
	lw	s0,8(sp)
	.cfi_restore 8
	.cfi_def_cfa 2, 16
	addi	sp,sp,16
	.cfi_def_cfa_offset 0
	jr	ra
	.cfi_endproc
.LFE321:
	.size	receive_data_from_fir, .-receive_data_from_fir
	.align	2
	.globl	start_fir_calculation
	.type	start_fir_calculation, @function
start_fir_calculation:
.LFB322:
	.loc 2 58 75
	.cfi_startproc
	addi	sp,sp,-16
	.cfi_def_cfa_offset 16
	sw	ra,12(sp)
	sw	s0,8(sp)
	.cfi_offset 1, -4
	.cfi_offset 8, -8
	addi	s0,sp,16
	.cfi_def_cfa 8, 0
	.loc 2 60 5
	li	a5,805306368
	.loc 2 60 49
	li	a4,1
	sw	a4,0(a5)
	.loc 2 61 1
	nop
	lw	ra,12(sp)
	.cfi_restore 1
	lw	s0,8(sp)
	.cfi_restore 8
	.cfi_def_cfa 2, 16
	addi	sp,sp,16
	.cfi_def_cfa_offset 0
	jr	ra
	.cfi_endproc
.LFE322:
	.size	start_fir_calculation, .-start_fir_calculation
	.align	2
	.globl	wait_for_fir_done
	.type	wait_for_fir_done, @function
wait_for_fir_done:
.LFB323:
	.loc 2 64 71
	.cfi_startproc
	addi	sp,sp,-16
	.cfi_def_cfa_offset 16
	sw	ra,12(sp)
	sw	s0,8(sp)
	.cfi_offset 1, -4
	.cfi_offset 8, -8
	addi	s0,sp,16
	.cfi_def_cfa 8, 0
	.loc 2 65 11
	nop
.L18:
	.loc 2 65 14 discriminator 1
	li	a5,805306368
	lw	a5,0(a5)
	.loc 2 65 58 discriminator 1
	andi	a5,a5,2
	.loc 2 65 12 discriminator 1
	beq	a5,zero,.L18
	.loc 2 66 1
	nop
	nop
	lw	ra,12(sp)
	.cfi_restore 1
	lw	s0,8(sp)
	.cfi_restore 8
	.cfi_def_cfa 2, 16
	addi	sp,sp,16
	.cfi_def_cfa_offset 0
	jr	ra
	.cfi_endproc
.LFE323:
	.size	wait_for_fir_done, .-wait_for_fir_done
	.text
.Letext0:
	.file 3 "/opt/homebrew/Cellar/riscv-gnu-toolchain/main/lib/gcc/riscv64-unknown-elf/14.2.0/include/stdint-gcc.h"
	.section	.note.GNU-stack,"",@progbits
